target datalayout = "e-m:e-p270:32:32-p271:32:32-p272:64:64-i64:64-i128:128-f80:128-n8:16:32:64-S128"
target triple = "x86_64-pc-linux-gnu"

%struct.helper = type { ptr, %struct.ossl_quic_tx_packetiser_args_st, %struct.ossl_qtx_args_st, ptr, ptr, %struct.quic_txfc_st, %struct.quic_rxfc_st, %struct.quic_rxfc_st, %struct.quic_rxfc_st, %struct.quic_rxfc_st, %struct.ossl_statm_st, ptr, ptr, %struct.quic_stream_map_st, i8, i8, ptr, ptr, %struct.ossl_qrx_args_st, ptr, %struct.PACKET, i64, %union.anon.0, [16 x %struct.ossl_quic_ack_range_st] }
%struct.ossl_quic_tx_packetiser_args_st = type { %struct.quic_conn_id_st, %struct.quic_conn_id_st, %union.bio_addr_st, i32, ptr, ptr, ptr, ptr, ptr, ptr, ptr, ptr, ptr, ptr, ptr, ptr, ptr, ptr, ptr, i32, [3 x ptr] }
%struct.quic_conn_id_st = type { i8, [20 x i8] }
%union.bio_addr_st = type { %struct.sockaddr_in6, [84 x i8] }
%struct.sockaddr_in6 = type { i16, i16, i32, %struct.in6_addr, i32 }
%struct.in6_addr = type { %union.anon }
%union.anon = type { [4 x i32] }
%struct.ossl_qtx_args_st = type { ptr, ptr, ptr, i64, ptr, ptr }
%struct.quic_txfc_st = type { ptr, i64, i64, i8 }
%struct.quic_rxfc_st = type { i64, i64, i64, i64, i64, i64, i64, %struct.OSSL_TIME, ptr, ptr, ptr, i8, i8, i8, i8 }
%struct.OSSL_TIME = type { i64 }
%struct.ossl_statm_st = type { %struct.OSSL_TIME, %struct.OSSL_TIME, %struct.OSSL_TIME, %struct.OSSL_TIME, i8 }
%struct.quic_stream_map_st = type { ptr, %struct.quic_stream_list_node_st, %struct.quic_stream_list_node_st, %struct.quic_stream_list_node_st, i64, i64, i64, i64, i64, ptr, ptr, ptr, ptr, ptr, i32 }
%struct.quic_stream_list_node_st = type { ptr, ptr }
%struct.ossl_qrx_args_st = type { ptr, ptr, ptr, i64, i64, [3 x i64], i8 }
%struct.PACKET = type { ptr, i64 }
%union.anon.0 = type { %struct.ossl_quic_frame_new_conn_id_st }
%struct.ossl_quic_frame_new_conn_id_st = type { i64, i64, %struct.quic_conn_id_st, %struct.QUIC_STATELESS_RESET_TOKEN }
%struct.QUIC_STATELESS_RESET_TOKEN = type { [16 x i8] }
%struct.ossl_quic_ack_range_st = type { i64, i64 }
%struct.ossl_quic_frame_conn_close_st = type { i8, i64, i64, ptr, i64 }

@.str.2 = private unnamed_addr constant [32 x i8] c"../openssl/test/quic_txp_test.c\00", align 1
@.str.5 = private unnamed_addr constant [2 x i8] c"0\00", align 1
@.str.115 = private unnamed_addr constant [5 x i8] c"2345\00", align 1
@.str.155 = private unnamed_addr constant [14 x i8] c"Reason string\00", align 1
@.str.157 = private unnamed_addr constant [27 x i8] c"h->frame.conn_close.is_app\00", align 1
@.str.158 = private unnamed_addr constant [31 x i8] c"h->frame.conn_close.frame_type\00", align 1
@.str.159 = private unnamed_addr constant [36 x i8] c"OSSL_QUIC_FRAME_TYPE_HANDSHAKE_DONE\00", align 1
@.str.160 = private unnamed_addr constant [31 x i8] c"h->frame.conn_close.error_code\00", align 1
@.str.161 = private unnamed_addr constant [27 x i8] c"h->frame.conn_close.reason\00", align 1
@.str.162 = private unnamed_addr constant [16 x i8] c"\22Reason string\22\00", align 1

; Function Attrs: nounwind uwtable
define internal i32 @check_14(ptr noundef %0) #0 {
  %2 = alloca i32, align 4
  %3 = alloca ptr, align 8
  store ptr %0, ptr %3, align 8, !tbaa !82
  %4 = load ptr, ptr %3, align 8, !tbaa !82
  %5 = getelementptr inbounds nuw %struct.helper, ptr %4, i32 0, i32 22
  %6 = load i8, ptr %5, align 8
  %7 = and i8 %6, 1
  %8 = zext i8 %7 to i32
  %9 = call i32 @test_int_eq(ptr noundef @.str.2, i32 noundef 1104, ptr noundef @.str.157, ptr noundef @.str.5, i32 noundef %8, i32 noundef 0)
  %10 = icmp ne i32 %9, 0
  br i1 %10, label %11, label %36

11:                                               ; preds = %1
  %12 = load ptr, ptr %3, align 8, !tbaa !82
  %13 = getelementptr inbounds nuw %struct.helper, ptr %12, i32 0, i32 22
  %14 = getelementptr inbounds nuw %struct.ossl_quic_frame_conn_close_st, ptr %13, i32 0, i32 2
  %15 = load i64, ptr %14, align 8, !tbaa !69
  %16 = call i32 @test_uint64_t_eq(ptr noundef @.str.2, i32 noundef 1106, ptr noundef @.str.158, ptr noundef @.str.159, i64 noundef %15, i64 noundef 30)
  %17 = icmp ne i32 %16, 0
  br i1 %17, label %18, label %36

18:                                               ; preds = %11
  %19 = load ptr, ptr %3, align 8, !tbaa !82
  %20 = getelementptr inbounds nuw %struct.helper, ptr %19, i32 0, i32 22
  %21 = getelementptr inbounds nuw %struct.ossl_quic_frame_conn_close_st, ptr %20, i32 0, i32 1
  %22 = load i64, ptr %21, align 8, !tbaa !69
  %23 = call i32 @test_uint64_t_eq(ptr noundef @.str.2, i32 noundef 1107, ptr noundef @.str.160, ptr noundef @.str.115, i64 noundef %22, i64 noundef 2345)
  %24 = icmp ne i32 %23, 0
  br i1 %24, label %25, label %36

25:                                               ; preds = %18
  %26 = load ptr, ptr %3, align 8, !tbaa !82
  %27 = getelementptr inbounds nuw %struct.helper, ptr %26, i32 0, i32 22
  %28 = getelementptr inbounds nuw %struct.ossl_quic_frame_conn_close_st, ptr %27, i32 0, i32 3
  %29 = load ptr, ptr %28, align 8, !tbaa !69
  %30 = load ptr, ptr %3, align 8, !tbaa !82
  %31 = getelementptr inbounds nuw %struct.helper, ptr %30, i32 0, i32 22
  %32 = getelementptr inbounds nuw %struct.ossl_quic_frame_conn_close_st, ptr %31, i32 0, i32 4
  %33 = load i64, ptr %32, align 8, !tbaa !69
  %34 = call i32 @test_mem_eq(ptr noundef @.str.2, i32 noundef 1109, ptr noundef @.str.161, ptr noundef @.str.162, ptr noundef %29, i64 noundef %33, ptr noundef @.str.155, i64 noundef 13)
  %35 = icmp ne i32 %34, 0
  br i1 %35, label %37, label %36

36:                                               ; preds = %25, %18, %11, %1
  store i32 0, ptr %2, align 4
  br label %38

37:                                               ; preds = %25
  store i32 1, ptr %2, align 4
  br label %38

38:                                               ; preds = %37, %36
  %39 = load i32, ptr %2, align 4
  ret i32 %39
}