; Function Attrs: nounwind uwtable
define internal range(i32 0, 2) i32 @check_14(ptr noundef readonly captures(none) %0) #0 {
  %2 = getelementptr inbounds nuw i8, ptr %0, i64 1128
  %3 = load i8, ptr %2, align 8
  %4 = and i8 %3, 1
  %5 = zext nneg i8 %4 to i32
  %6 = tail call i32 @test_int_eq(ptr noundef nonnull @.str.2, i32 noundef 1104, ptr noundef nonnull @.str.157, ptr noundef nonnull @.str.5, i32 noundef %5, i32 noundef 0) #8
  %.not = icmp eq i32 %6, 0
  br i1 %.not, label %21, label %7

7:                                                ; preds = %1
  %8 = getelementptr inbounds nuw i8, ptr %0, i64 1144
  %9 = load i64, ptr %8, align 8, !tbaa !64
  %10 = tail call i32 @test_uint64_t_eq(ptr noundef nonnull @.str.2, i32 noundef 1106, ptr noundef nonnull @.str.158, ptr noundef nonnull @.str.159, i64 noundef %9, i64 noundef 30) #8
  %.not5 = icmp eq i32 %10, 0
  br i1 %.not5, label %21, label %11

11:                                               ; preds = %7
  %12 = getelementptr inbounds nuw i8, ptr %0, i64 1136
  %13 = load i64, ptr %12, align 8, !tbaa !64
  %14 = tail call i32 @test_uint64_t_eq(ptr noundef nonnull @.str.2, i32 noundef 1107, ptr noundef nonnull @.str.160, ptr noundef nonnull @.str.115, i64 noundef %13, i64 noundef 2345) #8
  %.not6 = icmp eq i32 %14, 0
  br i1 %.not6, label %21, label %15

15:                                               ; preds = %11
  %16 = getelementptr inbounds nuw i8, ptr %0, i64 1152
  %17 = load ptr, ptr %16, align 8, !tbaa !64
  %18 = getelementptr inbounds nuw i8, ptr %0, i64 1160
  %19 = load i64, ptr %18, align 8, !tbaa !64
  %20 = tail call i32 @test_mem_eq(ptr noundef nonnull @.str.2, i32 noundef 1109, ptr noundef nonnull @.str.161, ptr noundef nonnull @.str.162, ptr noundef %17, i64 noundef %19, ptr noundef nonnull @.str.155, i64 noundef 13) #8
  %.not7 = icmp ne i32 %20, 0
  %spec.select = zext i1 %.not7 to i32
  br label %21

21:                                               ; preds = %15, %1, %7, %11
  %.0 = phi i32 [ 0, %11 ], [ 0, %7 ], [ 0, %1 ], [ %spec.select, %15 ]
  ret i32 %.0
}